                                      1 ;--------------------------------------------------------
                                      2 ; File Created by SDCC : free open source ISO C Compiler 
                                      3 ; Version 4.2.10 #13778 (MINGW64)
                                      4 ;--------------------------------------------------------
                                      5 	.module stm8s_flash
                                      6 	.optsdcc -mstm8
                                      7 	
                                      8 ;--------------------------------------------------------
                                      9 ; Public variables in this module
                                     10 ;--------------------------------------------------------
                                     11 	.globl _FLASH_Unlock
                                     12 	.globl _FLASH_Lock
                                     13 	.globl _FLASH_DeInit
                                     14 	.globl _FLASH_ITConfig
                                     15 	.globl _FLASH_EraseByte
                                     16 	.globl _FLASH_ProgramByte
                                     17 	.globl _FLASH_ReadByte
                                     18 	.globl _FLASH_ProgramWord
                                     19 	.globl _FLASH_ProgramOptionByte
                                     20 	.globl _FLASH_EraseOptionByte
                                     21 	.globl _FLASH_ReadOptionByte
                                     22 	.globl _FLASH_SetLowPowerMode
                                     23 	.globl _FLASH_SetProgrammingTime
                                     24 	.globl _FLASH_GetLowPowerMode
                                     25 	.globl _FLASH_GetProgrammingTime
                                     26 	.globl _FLASH_GetBootSize
                                     27 	.globl _FLASH_GetFlagStatus
                                     28 	.globl _FLASH_WaitForLastOperation
                                     29 	.globl _FLASH_EraseBlock
                                     30 	.globl _FLASH_ProgramBlock
                                     31 ;--------------------------------------------------------
                                     32 ; ram data
                                     33 ;--------------------------------------------------------
                                     34 	.area DATA
                                     35 ;--------------------------------------------------------
                                     36 ; ram data
                                     37 ;--------------------------------------------------------
                                     38 	.area INITIALIZED
                                     39 ;--------------------------------------------------------
                                     40 ; absolute external ram data
                                     41 ;--------------------------------------------------------
                                     42 	.area DABS (ABS)
                                     43 
                                     44 ; default segment ordering for linker
                                     45 	.area HOME
                                     46 	.area GSINIT
                                     47 	.area GSFINAL
                                     48 	.area CONST
                                     49 	.area INITIALIZER
                                     50 	.area CODE
                                     51 
                                     52 ;--------------------------------------------------------
                                     53 ; global & static initialisations
                                     54 ;--------------------------------------------------------
                                     55 	.area HOME
                                     56 	.area GSINIT
                                     57 	.area GSFINAL
                                     58 	.area GSINIT
                                     59 ;--------------------------------------------------------
                                     60 ; Home
                                     61 ;--------------------------------------------------------
                                     62 	.area HOME
                                     63 	.area HOME
                                     64 ;--------------------------------------------------------
                                     65 ; code
                                     66 ;--------------------------------------------------------
                                     67 	.area CODE
                                     68 ;	./../../lib/src/stm8s_flash.c: 87: void FLASH_Unlock(FLASH_MemType_TypeDef FLASH_MemType)
                                     69 ;	-----------------------------------------
                                     70 ;	 function FLASH_Unlock
                                     71 ;	-----------------------------------------
      000000                         72 _FLASH_Unlock:
                                     73 ;	./../../lib/src/stm8s_flash.c: 93: if(FLASH_MemType == FLASH_MEMTYPE_PROG)
      000000 A1 FD            [ 1]   74 	cp	a, #0xfd
      000002 26 09            [ 1]   75 	jrne	00102$
                                     76 ;	./../../lib/src/stm8s_flash.c: 95: FLASH->PUKR = FLASH_RASS_KEY1;
      000004 35 56 50 62      [ 1]   77 	mov	0x5062+0, #0x56
                                     78 ;	./../../lib/src/stm8s_flash.c: 96: FLASH->PUKR = FLASH_RASS_KEY2;
      000008 35 AE 50 62      [ 1]   79 	mov	0x5062+0, #0xae
      00000C 81               [ 4]   80 	ret
      00000D                         81 00102$:
                                     82 ;	./../../lib/src/stm8s_flash.c: 101: FLASH->DUKR = FLASH_RASS_KEY2; /* Warning: keys are reversed on data memory !!! */
      00000D 35 AE 50 64      [ 1]   83 	mov	0x5064+0, #0xae
                                     84 ;	./../../lib/src/stm8s_flash.c: 102: FLASH->DUKR = FLASH_RASS_KEY1;
      000011 35 56 50 64      [ 1]   85 	mov	0x5064+0, #0x56
                                     86 ;	./../../lib/src/stm8s_flash.c: 104: }
      000015 81               [ 4]   87 	ret
                                     88 ;	./../../lib/src/stm8s_flash.c: 112: void FLASH_Lock(FLASH_MemType_TypeDef FLASH_MemType)
                                     89 ;	-----------------------------------------
                                     90 ;	 function FLASH_Lock
                                     91 ;	-----------------------------------------
      000016                         92 _FLASH_Lock:
      000016 88               [ 1]   93 	push	a
      000017 6B 01            [ 1]   94 	ld	(0x01, sp), a
                                     95 ;	./../../lib/src/stm8s_flash.c: 118: FLASH->IAPSR &= (uint8_t)FLASH_MemType;
      000019 C6 50 5F         [ 1]   96 	ld	a, 0x505f
      00001C 14 01            [ 1]   97 	and	a, (0x01, sp)
      00001E C7 50 5F         [ 1]   98 	ld	0x505f, a
                                     99 ;	./../../lib/src/stm8s_flash.c: 119: }
      000021 84               [ 1]  100 	pop	a
      000022 81               [ 4]  101 	ret
                                    102 ;	./../../lib/src/stm8s_flash.c: 126: void FLASH_DeInit(void)
                                    103 ;	-----------------------------------------
                                    104 ;	 function FLASH_DeInit
                                    105 ;	-----------------------------------------
      000023                        106 _FLASH_DeInit:
                                    107 ;	./../../lib/src/stm8s_flash.c: 128: FLASH->CR1 = FLASH_CR1_RESET_VALUE;
      000023 35 00 50 5A      [ 1]  108 	mov	0x505a+0, #0x00
                                    109 ;	./../../lib/src/stm8s_flash.c: 129: FLASH->CR2 = FLASH_CR2_RESET_VALUE;
      000027 35 00 50 5B      [ 1]  110 	mov	0x505b+0, #0x00
                                    111 ;	./../../lib/src/stm8s_flash.c: 130: FLASH->NCR2 = FLASH_NCR2_RESET_VALUE;
      00002B 35 FF 50 5C      [ 1]  112 	mov	0x505c+0, #0xff
                                    113 ;	./../../lib/src/stm8s_flash.c: 131: FLASH->IAPSR &= (uint8_t)(~FLASH_IAPSR_DUL);
      00002F 72 17 50 5F      [ 1]  114 	bres	0x505f, #3
                                    115 ;	./../../lib/src/stm8s_flash.c: 132: FLASH->IAPSR &= (uint8_t)(~FLASH_IAPSR_PUL);
      000033 72 13 50 5F      [ 1]  116 	bres	0x505f, #1
                                    117 ;	./../../lib/src/stm8s_flash.c: 133: (void) FLASH->IAPSR; /* Reading of this register causes the clearing of status flags */
      000037 C6 50 5F         [ 1]  118 	ld	a, 0x505f
                                    119 ;	./../../lib/src/stm8s_flash.c: 134: }
      00003A 81               [ 4]  120 	ret
                                    121 ;	./../../lib/src/stm8s_flash.c: 142: void FLASH_ITConfig(FunctionalState NewState)
                                    122 ;	-----------------------------------------
                                    123 ;	 function FLASH_ITConfig
                                    124 ;	-----------------------------------------
      00003B                        125 _FLASH_ITConfig:
      00003B 88               [ 1]  126 	push	a
      00003C 6B 01            [ 1]  127 	ld	(0x01, sp), a
                                    128 ;	./../../lib/src/stm8s_flash.c: 149: FLASH->CR1 |= FLASH_CR1_IE; /* Enables the interrupt sources */
      00003E C6 50 5A         [ 1]  129 	ld	a, 0x505a
                                    130 ;	./../../lib/src/stm8s_flash.c: 147: if(NewState != DISABLE)
      000041 0D 01            [ 1]  131 	tnz	(0x01, sp)
      000043 27 07            [ 1]  132 	jreq	00102$
                                    133 ;	./../../lib/src/stm8s_flash.c: 149: FLASH->CR1 |= FLASH_CR1_IE; /* Enables the interrupt sources */
      000045 AA 02            [ 1]  134 	or	a, #0x02
      000047 C7 50 5A         [ 1]  135 	ld	0x505a, a
      00004A 20 05            [ 2]  136 	jra	00104$
      00004C                        137 00102$:
                                    138 ;	./../../lib/src/stm8s_flash.c: 153: FLASH->CR1 &= (uint8_t)(~FLASH_CR1_IE); /* Disables the interrupt sources */
      00004C A4 FD            [ 1]  139 	and	a, #0xfd
      00004E C7 50 5A         [ 1]  140 	ld	0x505a, a
      000051                        141 00104$:
                                    142 ;	./../../lib/src/stm8s_flash.c: 155: }
      000051 84               [ 1]  143 	pop	a
      000052 81               [ 4]  144 	ret
                                    145 ;	./../../lib/src/stm8s_flash.c: 164: void FLASH_EraseByte(uint32_t Address)
                                    146 ;	-----------------------------------------
                                    147 ;	 function FLASH_EraseByte
                                    148 ;	-----------------------------------------
      000053                        149 _FLASH_EraseByte:
                                    150 ;	./../../lib/src/stm8s_flash.c: 170: *(PointerAttr uint8_t*) (MemoryAddressCast)Address = FLASH_CLEAR_BYTE;
      000053 1E 05            [ 2]  151 	ldw	x, (0x05, sp)
      000055 7F               [ 1]  152 	clr	(x)
                                    153 ;	./../../lib/src/stm8s_flash.c: 171: }
      000056 1E 01            [ 2]  154 	ldw	x, (1, sp)
      000058 5B 06            [ 2]  155 	addw	sp, #6
      00005A FC               [ 2]  156 	jp	(x)
                                    157 ;	./../../lib/src/stm8s_flash.c: 181: void FLASH_ProgramByte(uint32_t Address, uint8_t Data)
                                    158 ;	-----------------------------------------
                                    159 ;	 function FLASH_ProgramByte
                                    160 ;	-----------------------------------------
      00005B                        161 _FLASH_ProgramByte:
                                    162 ;	./../../lib/src/stm8s_flash.c: 185: *(PointerAttr uint8_t*) (MemoryAddressCast)Address = Data;
      00005B 1E 05            [ 2]  163 	ldw	x, (0x05, sp)
      00005D 7B 07            [ 1]  164 	ld	a, (0x07, sp)
      00005F F7               [ 1]  165 	ld	(x), a
                                    166 ;	./../../lib/src/stm8s_flash.c: 186: }
      000060 1E 01            [ 2]  167 	ldw	x, (1, sp)
      000062 5B 07            [ 2]  168 	addw	sp, #7
      000064 FC               [ 2]  169 	jp	(x)
                                    170 ;	./../../lib/src/stm8s_flash.c: 195: uint8_t FLASH_ReadByte(uint32_t Address)
                                    171 ;	-----------------------------------------
                                    172 ;	 function FLASH_ReadByte
                                    173 ;	-----------------------------------------
      000065                        174 _FLASH_ReadByte:
                                    175 ;	./../../lib/src/stm8s_flash.c: 201: return(*(PointerAttr uint8_t *) (MemoryAddressCast)Address);
      000065 1E 05            [ 2]  176 	ldw	x, (0x05, sp)
      000067 F6               [ 1]  177 	ld	a, (x)
                                    178 ;	./../../lib/src/stm8s_flash.c: 202: }
      000068 1E 01            [ 2]  179 	ldw	x, (1, sp)
      00006A 5B 06            [ 2]  180 	addw	sp, #6
      00006C FC               [ 2]  181 	jp	(x)
                                    182 ;	./../../lib/src/stm8s_flash.c: 212: void FLASH_ProgramWord(uint32_t Address, uint32_t Data)
                                    183 ;	-----------------------------------------
                                    184 ;	 function FLASH_ProgramWord
                                    185 ;	-----------------------------------------
      00006D                        186 _FLASH_ProgramWord:
      00006D 52 04            [ 2]  187 	sub	sp, #4
                                    188 ;	./../../lib/src/stm8s_flash.c: 218: FLASH->CR2 |= FLASH_CR2_WPRG;
      00006F 72 1C 50 5B      [ 1]  189 	bset	0x505b, #6
                                    190 ;	./../../lib/src/stm8s_flash.c: 219: FLASH->NCR2 &= (uint8_t)(~FLASH_NCR2_NWPRG);
      000073 72 1D 50 5C      [ 1]  191 	bres	0x505c, #6
                                    192 ;	./../../lib/src/stm8s_flash.c: 222: *((PointerAttr uint8_t*)(MemoryAddressCast)Address)       = *((uint8_t*)(&Data));
      000077 1E 09            [ 2]  193 	ldw	x, (0x09, sp)
      000079 1F 01            [ 2]  194 	ldw	(0x01, sp), x
      00007B 90 96            [ 1]  195 	ldw	y, sp
      00007D 72 A9 00 0B      [ 2]  196 	addw	y, #11
      000081 93               [ 1]  197 	ldw	x, y
      000082 F6               [ 1]  198 	ld	a, (x)
      000083 1E 01            [ 2]  199 	ldw	x, (0x01, sp)
      000085 F7               [ 1]  200 	ld	(x), a
                                    201 ;	./../../lib/src/stm8s_flash.c: 224: *(((PointerAttr uint8_t*)(MemoryAddressCast)Address) + 1) = *((uint8_t*)(&Data)+1);
      000086 1E 01            [ 2]  202 	ldw	x, (0x01, sp)
      000088 5C               [ 1]  203 	incw	x
      000089 1F 03            [ 2]  204 	ldw	(0x03, sp), x
      00008B 93               [ 1]  205 	ldw	x, y
      00008C E6 01            [ 1]  206 	ld	a, (0x1, x)
      00008E 1E 03            [ 2]  207 	ldw	x, (0x03, sp)
      000090 F7               [ 1]  208 	ld	(x), a
                                    209 ;	./../../lib/src/stm8s_flash.c: 226: *(((PointerAttr uint8_t*)(MemoryAddressCast)Address) + 2) = *((uint8_t*)(&Data)+2);
      000091 1E 01            [ 2]  210 	ldw	x, (0x01, sp)
      000093 5C               [ 1]  211 	incw	x
      000094 5C               [ 1]  212 	incw	x
      000095 1F 03            [ 2]  213 	ldw	(0x03, sp), x
      000097 93               [ 1]  214 	ldw	x, y
      000098 E6 02            [ 1]  215 	ld	a, (0x2, x)
      00009A 1E 03            [ 2]  216 	ldw	x, (0x03, sp)
      00009C F7               [ 1]  217 	ld	(x), a
                                    218 ;	./../../lib/src/stm8s_flash.c: 228: *(((PointerAttr uint8_t*)(MemoryAddressCast)Address) + 3) = *((uint8_t*)(&Data)+3);
      00009D 1E 01            [ 2]  219 	ldw	x, (0x01, sp)
      00009F 90 E6 03         [ 1]  220 	ld	a, (0x3, y)
      0000A2 E7 03            [ 1]  221 	ld	(0x0003, x), a
                                    222 ;	./../../lib/src/stm8s_flash.c: 229: }
      0000A4 1E 05            [ 2]  223 	ldw	x, (5, sp)
      0000A6 5B 0E            [ 2]  224 	addw	sp, #14
      0000A8 FC               [ 2]  225 	jp	(x)
                                    226 ;	./../../lib/src/stm8s_flash.c: 237: void FLASH_ProgramOptionByte(uint16_t Address, uint8_t Data)
                                    227 ;	-----------------------------------------
                                    228 ;	 function FLASH_ProgramOptionByte
                                    229 ;	-----------------------------------------
      0000A9                        230 _FLASH_ProgramOptionByte:
      0000A9 52 05            [ 2]  231 	sub	sp, #5
      0000AB 6B 05            [ 1]  232 	ld	(0x05, sp), a
                                    233 ;	./../../lib/src/stm8s_flash.c: 243: FLASH->CR2 |= FLASH_CR2_OPT;
      0000AD 72 1E 50 5B      [ 1]  234 	bset	0x505b, #7
                                    235 ;	./../../lib/src/stm8s_flash.c: 244: FLASH->NCR2 &= (uint8_t)(~FLASH_NCR2_NOPT);
      0000B1 72 1F 50 5C      [ 1]  236 	bres	0x505c, #7
                                    237 ;	./../../lib/src/stm8s_flash.c: 247: if(Address == 0x4800)
      0000B5 1F 01            [ 2]  238 	ldw	(0x01, sp), x
                                    239 ;	./../../lib/src/stm8s_flash.c: 250: *((NEAR uint8_t*)Address) = Data;
      0000B7 1F 03            [ 2]  240 	ldw	(0x03, sp), x
                                    241 ;	./../../lib/src/stm8s_flash.c: 247: if(Address == 0x4800)
      0000B9 1E 01            [ 2]  242 	ldw	x, (0x01, sp)
      0000BB A3 48 00         [ 2]  243 	cpw	x, #0x4800
      0000BE 26 07            [ 1]  244 	jrne	00102$
                                    245 ;	./../../lib/src/stm8s_flash.c: 250: *((NEAR uint8_t*)Address) = Data;
      0000C0 1E 03            [ 2]  246 	ldw	x, (0x03, sp)
      0000C2 7B 05            [ 1]  247 	ld	a, (0x05, sp)
      0000C4 F7               [ 1]  248 	ld	(x), a
      0000C5 20 0C            [ 2]  249 	jra	00103$
      0000C7                        250 00102$:
                                    251 ;	./../../lib/src/stm8s_flash.c: 255: *((NEAR uint8_t*)Address) = Data;
      0000C7 1E 03            [ 2]  252 	ldw	x, (0x03, sp)
      0000C9 7B 05            [ 1]  253 	ld	a, (0x05, sp)
      0000CB F7               [ 1]  254 	ld	(x), a
                                    255 ;	./../../lib/src/stm8s_flash.c: 256: *((NEAR uint8_t*)((uint16_t)(Address + 1))) = (uint8_t)(~Data);
      0000CC 1E 01            [ 2]  256 	ldw	x, (0x01, sp)
      0000CE 5C               [ 1]  257 	incw	x
      0000CF 7B 05            [ 1]  258 	ld	a, (0x05, sp)
      0000D1 43               [ 1]  259 	cpl	a
      0000D2 F7               [ 1]  260 	ld	(x), a
      0000D3                        261 00103$:
                                    262 ;	./../../lib/src/stm8s_flash.c: 258: FLASH_WaitForLastOperation(FLASH_MEMTYPE_PROG);
      0000D3 A6 FD            [ 1]  263 	ld	a, #0xfd
      0000D5 CDr01rAA         [ 4]  264 	call	_FLASH_WaitForLastOperation
                                    265 ;	./../../lib/src/stm8s_flash.c: 261: FLASH->CR2 &= (uint8_t)(~FLASH_CR2_OPT);
      0000D8 72 1F 50 5B      [ 1]  266 	bres	0x505b, #7
                                    267 ;	./../../lib/src/stm8s_flash.c: 262: FLASH->NCR2 |= FLASH_NCR2_NOPT;
      0000DC 72 1E 50 5C      [ 1]  268 	bset	0x505c, #7
                                    269 ;	./../../lib/src/stm8s_flash.c: 263: }
      0000E0 5B 05            [ 2]  270 	addw	sp, #5
      0000E2 81               [ 4]  271 	ret
                                    272 ;	./../../lib/src/stm8s_flash.c: 270: void FLASH_EraseOptionByte(uint16_t Address)
                                    273 ;	-----------------------------------------
                                    274 ;	 function FLASH_EraseOptionByte
                                    275 ;	-----------------------------------------
      0000E3                        276 _FLASH_EraseOptionByte:
      0000E3 52 02            [ 2]  277 	sub	sp, #2
      0000E5 51               [ 1]  278 	exgw	x, y
                                    279 ;	./../../lib/src/stm8s_flash.c: 276: FLASH->CR2 |= FLASH_CR2_OPT;
      0000E6 72 1E 50 5B      [ 1]  280 	bset	0x505b, #7
                                    281 ;	./../../lib/src/stm8s_flash.c: 277: FLASH->NCR2 &= (uint8_t)(~FLASH_NCR2_NOPT);
      0000EA 72 1F 50 5C      [ 1]  282 	bres	0x505c, #7
                                    283 ;	./../../lib/src/stm8s_flash.c: 280: if(Address == 0x4800)
      0000EE 93               [ 1]  284 	ldw	x, y
                                    285 ;	./../../lib/src/stm8s_flash.c: 283: *((NEAR uint8_t*)Address) = FLASH_CLEAR_BYTE;
      0000EF 17 01            [ 2]  286 	ldw	(0x01, sp), y
                                    287 ;	./../../lib/src/stm8s_flash.c: 280: if(Address == 0x4800)
      0000F1 A3 48 00         [ 2]  288 	cpw	x, #0x4800
      0000F4 26 05            [ 1]  289 	jrne	00102$
                                    290 ;	./../../lib/src/stm8s_flash.c: 283: *((NEAR uint8_t*)Address) = FLASH_CLEAR_BYTE;
      0000F6 1E 01            [ 2]  291 	ldw	x, (0x01, sp)
      0000F8 7F               [ 1]  292 	clr	(x)
      0000F9 20 08            [ 2]  293 	jra	00103$
      0000FB                        294 00102$:
                                    295 ;	./../../lib/src/stm8s_flash.c: 288: *((NEAR uint8_t*)Address) = FLASH_CLEAR_BYTE;
      0000FB 1E 01            [ 2]  296 	ldw	x, (0x01, sp)
      0000FD 7F               [ 1]  297 	clr	(x)
                                    298 ;	./../../lib/src/stm8s_flash.c: 289: *((NEAR uint8_t*)((uint16_t)(Address + (uint16_t)1 ))) = FLASH_SET_BYTE;
      0000FE 93               [ 1]  299 	ldw	x, y
      0000FF 5C               [ 1]  300 	incw	x
      000100 A6 FF            [ 1]  301 	ld	a, #0xff
      000102 F7               [ 1]  302 	ld	(x), a
      000103                        303 00103$:
                                    304 ;	./../../lib/src/stm8s_flash.c: 291: FLASH_WaitForLastOperation(FLASH_MEMTYPE_PROG);
      000103 A6 FD            [ 1]  305 	ld	a, #0xfd
      000105 CDr01rAA         [ 4]  306 	call	_FLASH_WaitForLastOperation
                                    307 ;	./../../lib/src/stm8s_flash.c: 294: FLASH->CR2 &= (uint8_t)(~FLASH_CR2_OPT);
      000108 72 1F 50 5B      [ 1]  308 	bres	0x505b, #7
                                    309 ;	./../../lib/src/stm8s_flash.c: 295: FLASH->NCR2 |= FLASH_NCR2_NOPT;
      00010C 72 1E 50 5C      [ 1]  310 	bset	0x505c, #7
                                    311 ;	./../../lib/src/stm8s_flash.c: 296: }
      000110 5B 02            [ 2]  312 	addw	sp, #2
      000112 81               [ 4]  313 	ret
                                    314 ;	./../../lib/src/stm8s_flash.c: 303: uint16_t FLASH_ReadOptionByte(uint16_t Address)
                                    315 ;	-----------------------------------------
                                    316 ;	 function FLASH_ReadOptionByte
                                    317 ;	-----------------------------------------
      000113                        318 _FLASH_ReadOptionByte:
      000113 52 02            [ 2]  319 	sub	sp, #2
                                    320 ;	./../../lib/src/stm8s_flash.c: 311: value_optbyte = *((NEAR uint8_t*)Address); /* Read option byte */
      000115 90 93            [ 1]  321 	ldw	y, x
      000117 F6               [ 1]  322 	ld	a, (x)
      000118 6B 01            [ 1]  323 	ld	(0x01, sp), a
                                    324 ;	./../../lib/src/stm8s_flash.c: 312: value_optbyte_complement = *(((NEAR uint8_t*)Address) + 1); /* Read option byte complement */
      00011A E6 01            [ 1]  325 	ld	a, (0x1, x)
      00011C 6B 02            [ 1]  326 	ld	(0x02, sp), a
                                    327 ;	./../../lib/src/stm8s_flash.c: 315: if(Address == 0x4800)
                                    328 ;	./../../lib/src/stm8s_flash.c: 317: res_value =	 value_optbyte;
      00011E 5F               [ 1]  329 	clrw	x
      00011F 7B 01            [ 1]  330 	ld	a, (0x01, sp)
      000121 97               [ 1]  331 	ld	xl, a
                                    332 ;	./../../lib/src/stm8s_flash.c: 315: if(Address == 0x4800)
      000122 90 A3 48 00      [ 2]  333 	cpw	y, #0x4800
      000126 27 19            [ 1]  334 	jreq	00106$
                                    335 ;	./../../lib/src/stm8s_flash.c: 317: res_value =	 value_optbyte;
                                    336 ;	./../../lib/src/stm8s_flash.c: 321: if(value_optbyte == (uint8_t)(~value_optbyte_complement))
      000128 7B 02            [ 1]  337 	ld	a, (0x02, sp)
      00012A 43               [ 1]  338 	cpl	a
      00012B 11 01            [ 1]  339 	cp	a, (0x01, sp)
      00012D 26 0F            [ 1]  340 	jrne	00102$
                                    341 ;	./../../lib/src/stm8s_flash.c: 323: res_value = (uint16_t)((uint16_t)value_optbyte << 8);
      00012F 4F               [ 1]  342 	clr	a
      000130 02               [ 1]  343 	rlwa	x
                                    344 ;	./../../lib/src/stm8s_flash.c: 324: res_value = res_value | (uint16_t)value_optbyte_complement;
      000131 7B 02            [ 1]  345 	ld	a, (0x02, sp)
      000133 0F 01            [ 1]  346 	clr	(0x01, sp)
      000135 89               [ 2]  347 	pushw	x
      000136 1A 02            [ 1]  348 	or	a, (2, sp)
      000138 85               [ 2]  349 	popw	x
      000139 02               [ 1]  350 	rlwa	x
      00013A 1A 01            [ 1]  351 	or	a, (0x01, sp)
      00013C 95               [ 1]  352 	ld	xh, a
                                    353 ;	./../../lib/src/stm8s_flash.c: 328: res_value = FLASH_OPTIONBYTE_ERROR;
      00013D BC                     354 	.byte 0xbc
      00013E                        355 00102$:
      00013E AE 55 55         [ 2]  356 	ldw	x, #0x5555
      000141                        357 00106$:
                                    358 ;	./../../lib/src/stm8s_flash.c: 331: return(res_value);
                                    359 ;	./../../lib/src/stm8s_flash.c: 332: }
      000141 5B 02            [ 2]  360 	addw	sp, #2
      000143 81               [ 4]  361 	ret
                                    362 ;	./../../lib/src/stm8s_flash.c: 340: void FLASH_SetLowPowerMode(FLASH_LPMode_TypeDef FLASH_LPMode)
                                    363 ;	-----------------------------------------
                                    364 ;	 function FLASH_SetLowPowerMode
                                    365 ;	-----------------------------------------
      000144                        366 _FLASH_SetLowPowerMode:
      000144 88               [ 1]  367 	push	a
      000145 6B 01            [ 1]  368 	ld	(0x01, sp), a
                                    369 ;	./../../lib/src/stm8s_flash.c: 346: FLASH->CR1 &= (uint8_t)(~(FLASH_CR1_HALT | FLASH_CR1_AHALT));
      000147 C6 50 5A         [ 1]  370 	ld	a, 0x505a
      00014A A4 F3            [ 1]  371 	and	a, #0xf3
      00014C C7 50 5A         [ 1]  372 	ld	0x505a, a
                                    373 ;	./../../lib/src/stm8s_flash.c: 349: FLASH->CR1 |= (uint8_t)FLASH_LPMode;
      00014F C6 50 5A         [ 1]  374 	ld	a, 0x505a
      000152 1A 01            [ 1]  375 	or	a, (0x01, sp)
      000154 C7 50 5A         [ 1]  376 	ld	0x505a, a
                                    377 ;	./../../lib/src/stm8s_flash.c: 350: }
      000157 84               [ 1]  378 	pop	a
      000158 81               [ 4]  379 	ret
                                    380 ;	./../../lib/src/stm8s_flash.c: 358: void FLASH_SetProgrammingTime(FLASH_ProgramTime_TypeDef FLASH_ProgTime)
                                    381 ;	-----------------------------------------
                                    382 ;	 function FLASH_SetProgrammingTime
                                    383 ;	-----------------------------------------
      000159                        384 _FLASH_SetProgrammingTime:
      000159 97               [ 1]  385 	ld	xl, a
                                    386 ;	./../../lib/src/stm8s_flash.c: 363: FLASH->CR1 &= (uint8_t)(~FLASH_CR1_FIX);
      00015A C6 50 5A         [ 1]  387 	ld	a, 0x505a
      00015D A4 FE            [ 1]  388 	and	a, #0xfe
      00015F C7 50 5A         [ 1]  389 	ld	0x505a, a
                                    390 ;	./../../lib/src/stm8s_flash.c: 364: FLASH->CR1 |= (uint8_t)FLASH_ProgTime;
      000162 C6 50 5A         [ 1]  391 	ld	a, 0x505a
      000165 89               [ 2]  392 	pushw	x
      000166 1A 02            [ 1]  393 	or	a, (2, sp)
      000168 85               [ 2]  394 	popw	x
      000169 C7 50 5A         [ 1]  395 	ld	0x505a, a
                                    396 ;	./../../lib/src/stm8s_flash.c: 365: }
      00016C 81               [ 4]  397 	ret
                                    398 ;	./../../lib/src/stm8s_flash.c: 372: FLASH_LPMode_TypeDef FLASH_GetLowPowerMode(void)
                                    399 ;	-----------------------------------------
                                    400 ;	 function FLASH_GetLowPowerMode
                                    401 ;	-----------------------------------------
      00016D                        402 _FLASH_GetLowPowerMode:
                                    403 ;	./../../lib/src/stm8s_flash.c: 374: return((FLASH_LPMode_TypeDef)(FLASH->CR1 & (uint8_t)(FLASH_CR1_HALT | FLASH_CR1_AHALT)));
      00016D C6 50 5A         [ 1]  404 	ld	a, 0x505a
      000170 A4 0C            [ 1]  405 	and	a, #0x0c
                                    406 ;	./../../lib/src/stm8s_flash.c: 375: }
      000172 81               [ 4]  407 	ret
                                    408 ;	./../../lib/src/stm8s_flash.c: 382: FLASH_ProgramTime_TypeDef FLASH_GetProgrammingTime(void)
                                    409 ;	-----------------------------------------
                                    410 ;	 function FLASH_GetProgrammingTime
                                    411 ;	-----------------------------------------
      000173                        412 _FLASH_GetProgrammingTime:
                                    413 ;	./../../lib/src/stm8s_flash.c: 384: return((FLASH_ProgramTime_TypeDef)(FLASH->CR1 & FLASH_CR1_FIX));
      000173 C6 50 5A         [ 1]  414 	ld	a, 0x505a
      000176 A4 01            [ 1]  415 	and	a, #0x01
                                    416 ;	./../../lib/src/stm8s_flash.c: 385: }
      000178 81               [ 4]  417 	ret
                                    418 ;	./../../lib/src/stm8s_flash.c: 392: uint32_t FLASH_GetBootSize(void)
                                    419 ;	-----------------------------------------
                                    420 ;	 function FLASH_GetBootSize
                                    421 ;	-----------------------------------------
      000179                        422 _FLASH_GetBootSize:
                                    423 ;	./../../lib/src/stm8s_flash.c: 397: temp = (uint32_t)((uint32_t)FLASH->FPR * (uint32_t)512);
      000179 C6 50 5D         [ 1]  424 	ld	a, 0x505d
      00017C 5F               [ 1]  425 	clrw	x
      00017D 5E               [ 1]  426 	swapw	x
      00017E 90 95            [ 1]  427 	ld	yh, a
      000180 4F               [ 1]  428 	clr	a
      000181 90 97            [ 1]  429 	ld	yl, a
      000183 90 58            [ 2]  430 	sllw	y
      000185 59               [ 2]  431 	rlcw	x
                                    432 ;	./../../lib/src/stm8s_flash.c: 400: if(FLASH->FPR == 0xFF)
      000186 C6 50 5D         [ 1]  433 	ld	a, 0x505d
      000189 4C               [ 1]  434 	inc	a
      00018A 26 0B            [ 1]  435 	jrne	00102$
                                    436 ;	./../../lib/src/stm8s_flash.c: 402: temp += 512;
      00018C 72 A9 02 00      [ 2]  437 	addw	y, #0x0200
      000190 9F               [ 1]  438 	ld	a, xl
      000191 A9 00            [ 1]  439 	adc	a, #0x00
      000193 02               [ 1]  440 	rlwa	x
      000194 A9 00            [ 1]  441 	adc	a, #0x00
      000196 95               [ 1]  442 	ld	xh, a
      000197                        443 00102$:
                                    444 ;	./../../lib/src/stm8s_flash.c: 406: return(temp);
      000197 51               [ 1]  445 	exgw	x, y
                                    446 ;	./../../lib/src/stm8s_flash.c: 407: }
      000198 81               [ 4]  447 	ret
                                    448 ;	./../../lib/src/stm8s_flash.c: 417: FlagStatus FLASH_GetFlagStatus(FLASH_Flag_TypeDef FLASH_FLAG)
                                    449 ;	-----------------------------------------
                                    450 ;	 function FLASH_GetFlagStatus
                                    451 ;	-----------------------------------------
      000199                        452 _FLASH_GetFlagStatus:
      000199 88               [ 1]  453 	push	a
      00019A 6B 01            [ 1]  454 	ld	(0x01, sp), a
                                    455 ;	./../../lib/src/stm8s_flash.c: 424: if((FLASH->IAPSR & (uint8_t)FLASH_FLAG) != (uint8_t)RESET)
      00019C C6 50 5F         [ 1]  456 	ld	a, 0x505f
      00019F 14 01            [ 1]  457 	and	a, (0x01, sp)
      0001A1 27 03            [ 1]  458 	jreq	00102$
                                    459 ;	./../../lib/src/stm8s_flash.c: 426: status = SET; /* FLASH_FLAG is set */
      0001A3 A6 01            [ 1]  460 	ld	a, #0x01
                                    461 ;	./../../lib/src/stm8s_flash.c: 430: status = RESET; /* FLASH_FLAG is reset*/
      0001A5 21                     462 	.byte 0x21
      0001A6                        463 00102$:
      0001A6 4F               [ 1]  464 	clr	a
      0001A7                        465 00103$:
                                    466 ;	./../../lib/src/stm8s_flash.c: 434: return status;
                                    467 ;	./../../lib/src/stm8s_flash.c: 435: }
      0001A7 5B 01            [ 2]  468 	addw	sp, #1
      0001A9 81               [ 4]  469 	ret
                                    470 ;	./../../lib/src/stm8s_flash.c: 549: IN_RAM(FLASH_Status_TypeDef FLASH_WaitForLastOperation(FLASH_MemType_TypeDef FLASH_MemType))
                                    471 ;	-----------------------------------------
                                    472 ;	 function FLASH_WaitForLastOperation
                                    473 ;	-----------------------------------------
      0001AA                        474 _FLASH_WaitForLastOperation:
      0001AA 97               [ 1]  475 	ld	xl, a
                                    476 ;	./../../lib/src/stm8s_flash.c: 551: uint8_t flagstatus = 0x00;
      0001AB 4F               [ 1]  477 	clr	a
                                    478 ;	./../../lib/src/stm8s_flash.c: 557: if(FLASH_MemType == FLASH_MEMTYPE_PROG)
      0001AC 88               [ 1]  479 	push	a
      0001AD 9F               [ 1]  480 	ld	a, xl
      0001AE A1 FD            [ 1]  481 	cp	a, #0xfd
      0001B0 84               [ 1]  482 	pop	a
      0001B1 26 10            [ 1]  483 	jrne	00121$
                                    484 ;	./../../lib/src/stm8s_flash.c: 559: while((flagstatus == 0x00) && (timeout != 0x00))
      0001B3 5F               [ 1]  485 	clrw	x
      0001B4 5A               [ 2]  486 	decw	x
      0001B5                        487 00102$:
      0001B5 4D               [ 1]  488 	tnz	a
      0001B6 26 1B            [ 1]  489 	jrne	00111$
      0001B8 5D               [ 2]  490 	tnzw	x
      0001B9 27 18            [ 1]  491 	jreq	00111$
                                    492 ;	./../../lib/src/stm8s_flash.c: 561: flagstatus = (uint8_t)(FLASH->IAPSR & (uint8_t)(FLASH_IAPSR_EOP |
      0001BB C6 50 5F         [ 1]  493 	ld	a, 0x505f
      0001BE A4 05            [ 1]  494 	and	a, #0x05
                                    495 ;	./../../lib/src/stm8s_flash.c: 563: timeout--;
      0001C0 5A               [ 2]  496 	decw	x
      0001C1 20 F2            [ 2]  497 	jra	00102$
                                    498 ;	./../../lib/src/stm8s_flash.c: 568: while((flagstatus == 0x00) && (timeout != 0x00))
      0001C3                        499 00121$:
      0001C3 5F               [ 1]  500 	clrw	x
      0001C4 5A               [ 2]  501 	decw	x
      0001C5                        502 00106$:
      0001C5 4D               [ 1]  503 	tnz	a
      0001C6 26 0B            [ 1]  504 	jrne	00124$
      0001C8 5D               [ 2]  505 	tnzw	x
      0001C9 27 08            [ 1]  506 	jreq	00124$
                                    507 ;	./../../lib/src/stm8s_flash.c: 570: flagstatus = (uint8_t)(FLASH->IAPSR & (uint8_t)(FLASH_IAPSR_HVOFF |
      0001CB C6 50 5F         [ 1]  508 	ld	a, 0x505f
      0001CE A4 41            [ 1]  509 	and	a, #0x41
                                    510 ;	./../../lib/src/stm8s_flash.c: 572: timeout--;
      0001D0 5A               [ 2]  511 	decw	x
      0001D1 20 F2            [ 2]  512 	jra	00106$
                                    513 ;	./../../lib/src/stm8s_flash.c: 589: return((FLASH_Status_TypeDef)flagstatus);
                                    514 ;	./../../lib/src/stm8s_flash.c: 572: timeout--;
      0001D3                        515 00124$:
      0001D3                        516 00111$:
                                    517 ;	./../../lib/src/stm8s_flash.c: 584: if(timeout == 0x00 )
      0001D3 5D               [ 2]  518 	tnzw	x
      0001D4 27 01            [ 1]  519 	jreq	00164$
      0001D6 81               [ 4]  520 	ret
      0001D7                        521 00164$:
                                    522 ;	./../../lib/src/stm8s_flash.c: 586: flagstatus = FLASH_STATUS_TIMEOUT;
      0001D7 A6 02            [ 1]  523 	ld	a, #0x02
                                    524 ;	./../../lib/src/stm8s_flash.c: 589: return((FLASH_Status_TypeDef)flagstatus);
                                    525 ;	./../../lib/src/stm8s_flash.c: 590: }
      0001D9 81               [ 4]  526 	ret
                                    527 ;	./../../lib/src/stm8s_flash.c: 599: IN_RAM(void FLASH_EraseBlock(uint16_t BlockNum, FLASH_MemType_TypeDef FLASH_MemType))
                                    528 ;	-----------------------------------------
                                    529 ;	 function FLASH_EraseBlock
                                    530 ;	-----------------------------------------
      0001DA                        531 _FLASH_EraseBlock:
      0001DA 52 04            [ 2]  532 	sub	sp, #4
      0001DC 51               [ 1]  533 	exgw	x, y
                                    534 ;	./../../lib/src/stm8s_flash.c: 612: if(FLASH_MemType == FLASH_MEMTYPE_PROG)
      0001DD A1 FD            [ 1]  535 	cp	a, #0xfd
      0001DF 26 0A            [ 1]  536 	jrne	00102$
                                    537 ;	./../../lib/src/stm8s_flash.c: 615: startaddress = FLASH_PROG_START_PHYSICAL_ADDRESS;
      0001E1 AE 80 00         [ 2]  538 	ldw	x, #0x8000
      0001E4 1F 03            [ 2]  539 	ldw	(0x03, sp), x
      0001E6 5F               [ 1]  540 	clrw	x
      0001E7 1F 01            [ 2]  541 	ldw	(0x01, sp), x
      0001E9 20 08            [ 2]  542 	jra	00103$
      0001EB                        543 00102$:
                                    544 ;	./../../lib/src/stm8s_flash.c: 620: startaddress = FLASH_DATA_START_PHYSICAL_ADDRESS;
      0001EB AE 40 00         [ 2]  545 	ldw	x, #0x4000
      0001EE 1F 03            [ 2]  546 	ldw	(0x03, sp), x
      0001F0 5F               [ 1]  547 	clrw	x
      0001F1 1F 01            [ 2]  548 	ldw	(0x01, sp), x
      0001F3                        549 00103$:
                                    550 ;	./../../lib/src/stm8s_flash.c: 628: pwFlash = (PointerAttr uint32_t *)(MemoryAddressCast)(startaddress + ((uint32_t)BlockNum * FLASH_BLOCK_SIZE));
      0001F3 93               [ 1]  551 	ldw	x, y
      0001F4 58               [ 2]  552 	sllw	x
      0001F5 58               [ 2]  553 	sllw	x
      0001F6 58               [ 2]  554 	sllw	x
      0001F7 58               [ 2]  555 	sllw	x
      0001F8 58               [ 2]  556 	sllw	x
      0001F9 58               [ 2]  557 	sllw	x
      0001FA 58               [ 2]  558 	sllw	x
      0001FB 72 FB 03         [ 2]  559 	addw	x, (0x03, sp)
                                    560 ;	./../../lib/src/stm8s_flash.c: 632: FLASH->CR2 |= FLASH_CR2_ERASE;
      0001FE 72 1A 50 5B      [ 1]  561 	bset	0x505b, #5
                                    562 ;	./../../lib/src/stm8s_flash.c: 633: FLASH->NCR2 &= (uint8_t)(~FLASH_NCR2_NERASE);
      000202 72 1B 50 5C      [ 1]  563 	bres	0x505c, #5
                                    564 ;	./../../lib/src/stm8s_flash.c: 637: *pwFlash = (uint32_t)0;
      000206 6F 03            [ 1]  565 	clr	(0x3, x)
      000208 6F 02            [ 1]  566 	clr	(0x2, x)
      00020A 6F 01            [ 1]  567 	clr	(0x1, x)
      00020C 7F               [ 1]  568 	clr	(x)
                                    569 ;	./../../lib/src/stm8s_flash.c: 645: }
      00020D 5B 04            [ 2]  570 	addw	sp, #4
      00020F 81               [ 4]  571 	ret
                                    572 ;	./../../lib/src/stm8s_flash.c: 656: IN_RAM(void FLASH_ProgramBlock(uint16_t BlockNum, FLASH_MemType_TypeDef FLASH_MemType,
                                    573 ;	-----------------------------------------
                                    574 ;	 function FLASH_ProgramBlock
                                    575 ;	-----------------------------------------
      000210                        576 _FLASH_ProgramBlock:
      000210 52 08            [ 2]  577 	sub	sp, #8
      000212 51               [ 1]  578 	exgw	x, y
                                    579 ;	./../../lib/src/stm8s_flash.c: 665: if(FLASH_MemType == FLASH_MEMTYPE_PROG)
      000213 A1 FD            [ 1]  580 	cp	a, #0xfd
      000215 26 09            [ 1]  581 	jrne	00102$
                                    582 ;	./../../lib/src/stm8s_flash.c: 668: startaddress = FLASH_PROG_START_PHYSICAL_ADDRESS;
      000217 0F 04            [ 1]  583 	clr	(0x04, sp)
      000219 A6 80            [ 1]  584 	ld	a, #0x80
      00021B 5F               [ 1]  585 	clrw	x
      00021C 1F 01            [ 2]  586 	ldw	(0x01, sp), x
      00021E 20 07            [ 2]  587 	jra	00103$
      000220                        588 00102$:
                                    589 ;	./../../lib/src/stm8s_flash.c: 673: startaddress = FLASH_DATA_START_PHYSICAL_ADDRESS;
      000220 0F 04            [ 1]  590 	clr	(0x04, sp)
      000222 A6 40            [ 1]  591 	ld	a, #0x40
      000224 5F               [ 1]  592 	clrw	x
      000225 1F 01            [ 2]  593 	ldw	(0x01, sp), x
      000227                        594 00103$:
                                    595 ;	./../../lib/src/stm8s_flash.c: 677: startaddress = startaddress + ((uint32_t)BlockNum * FLASH_BLOCK_SIZE);
      000227 5F               [ 1]  596 	clrw	x
      000228 88               [ 1]  597 	push	a
      000229 A6 07            [ 1]  598 	ld	a, #0x07
      00022B                        599 00131$:
      00022B 90 58            [ 2]  600 	sllw	y
      00022D 59               [ 2]  601 	rlcw	x
      00022E 4A               [ 1]  602 	dec	a
      00022F 26 FA            [ 1]  603 	jrne	00131$
      000231 17 08            [ 2]  604 	ldw	(0x08, sp), y
      000233 84               [ 1]  605 	pop	a
      000234 90 95            [ 1]  606 	ld	yh, a
      000236 61               [ 1]  607 	exg	a, yl
      000237 7B 04            [ 1]  608 	ld	a, (0x04, sp)
      000239 61               [ 1]  609 	exg	a, yl
      00023A 72 F9 07         [ 2]  610 	addw	y, (0x07, sp)
      00023D 9F               [ 1]  611 	ld	a, xl
      00023E 19 02            [ 1]  612 	adc	a, (0x02, sp)
      000240 02               [ 1]  613 	rlwa	x
      000241 19 01            [ 1]  614 	adc	a, (0x01, sp)
      000243 95               [ 1]  615 	ld	xh, a
      000244 17 03            [ 2]  616 	ldw	(0x03, sp), y
      000246 1F 01            [ 2]  617 	ldw	(0x01, sp), x
                                    618 ;	./../../lib/src/stm8s_flash.c: 683: FLASH->CR2 |= FLASH_CR2_PRG;
      000248 C6 50 5B         [ 1]  619 	ld	a, 0x505b
                                    620 ;	./../../lib/src/stm8s_flash.c: 680: if(FLASH_ProgMode == FLASH_PROGRAMMODE_STANDARD)
      00024B 0D 0B            [ 1]  621 	tnz	(0x0b, sp)
      00024D 26 0B            [ 1]  622 	jrne	00105$
                                    623 ;	./../../lib/src/stm8s_flash.c: 683: FLASH->CR2 |= FLASH_CR2_PRG;
      00024F AA 01            [ 1]  624 	or	a, #0x01
      000251 C7 50 5B         [ 1]  625 	ld	0x505b, a
                                    626 ;	./../../lib/src/stm8s_flash.c: 684: FLASH->NCR2 &= (uint8_t)(~FLASH_NCR2_NPRG);
      000254 72 11 50 5C      [ 1]  627 	bres	0x505c, #0
      000258 20 09            [ 2]  628 	jra	00114$
      00025A                        629 00105$:
                                    630 ;	./../../lib/src/stm8s_flash.c: 689: FLASH->CR2 |= FLASH_CR2_FPRG;
      00025A AA 10            [ 1]  631 	or	a, #0x10
      00025C C7 50 5B         [ 1]  632 	ld	0x505b, a
                                    633 ;	./../../lib/src/stm8s_flash.c: 690: FLASH->NCR2 &= (uint8_t)(~FLASH_NCR2_NFPRG);
      00025F 72 19 50 5C      [ 1]  634 	bres	0x505c, #4
                                    635 ;	./../../lib/src/stm8s_flash.c: 694: for(Count = 0; Count < FLASH_BLOCK_SIZE; Count++)
      000263                        636 00114$:
      000263 90 5F            [ 1]  637 	clrw	y
      000265                        638 00108$:
                                    639 ;	./../../lib/src/stm8s_flash.c: 696: *((PointerAttr uint8_t*) (MemoryAddressCast)startaddress + Count) = ((uint8_t)(Buffer[Count]));
      000265 1E 03            [ 2]  640 	ldw	x, (0x03, sp)
      000267 1F 05            [ 2]  641 	ldw	(0x05, sp), x
      000269 93               [ 1]  642 	ldw	x, y
      00026A 72 FB 05         [ 2]  643 	addw	x, (0x05, sp)
      00026D 1F 07            [ 2]  644 	ldw	(0x07, sp), x
      00026F 93               [ 1]  645 	ldw	x, y
      000270 72 FB 0C         [ 2]  646 	addw	x, (0x0c, sp)
      000273 F6               [ 1]  647 	ld	a, (x)
      000274 1E 07            [ 2]  648 	ldw	x, (0x07, sp)
      000276 F7               [ 1]  649 	ld	(x), a
                                    650 ;	./../../lib/src/stm8s_flash.c: 694: for(Count = 0; Count < FLASH_BLOCK_SIZE; Count++)
      000277 90 5C            [ 1]  651 	incw	y
      000279 90 A3 00 80      [ 2]  652 	cpw	y, #0x0080
      00027D 25 E6            [ 1]  653 	jrc	00108$
                                    654 ;	./../../lib/src/stm8s_flash.c: 698: }
      00027F 1E 09            [ 2]  655 	ldw	x, (9, sp)
      000281 5B 0D            [ 2]  656 	addw	sp, #13
      000283 FC               [ 2]  657 	jp	(x)
                                    658 	.area CODE
                                    659 	.area CONST
                                    660 	.area INITIALIZER
                                    661 	.area CABS (ABS)
